target datalayout = "e-m:e-p270:32:32-p271:32:32-p272:64:64-i64:64-i128:128-f80:128-n8:16:32:64-S128"
target triple = "x86_64-pc-linux-gnu"

%struct.expert_field = type { i32, i32 }
%struct.ext_value_string_t = type { i32, ptr, i32 }

@ansi_a_elem_1_strings = global ptr null, align 8
@.str.282 = private unnamed_addr constant [1 x i8] zeroinitializer, align 1
@ei_ansi_a_extraneous_data = internal global %struct.expert_field zeroinitializer, align 4
@ei_ansi_a_missing_mand_elem = internal global %struct.expert_field zeroinitializer, align 4
@.str.1753 = private unnamed_addr constant [71 x i8] c"Missing Mandatory element (0x%02x) %s%s, rest of dissection is suspect\00", align 1

; Function Attrs: null_pointer_is_valid sspstrong uwtable
define internal void @bsmap_unblock(ptr noundef %0, ptr noundef %1, ptr noundef %2, i32 noundef %3, i32 noundef %4, ptr noundef %5) #1 {
  %7 = alloca ptr, align 8
  %8 = alloca ptr, align 8
  %9 = alloca ptr, align 8
  %10 = alloca i32, align 4
  %11 = alloca i32, align 4
  %12 = alloca ptr, align 8
  %13 = alloca i32, align 4
  %14 = alloca i32, align 4
  %15 = alloca i32, align 4
  %16 = alloca i32, align 4
  store ptr %0, ptr %7, align 8
  store ptr %1, ptr %8, align 8
  store ptr %2, ptr %9, align 8
  store i32 %3, ptr %10, align 4
  store i32 %4, ptr %11, align 4
  store ptr %5, ptr %12, align 8
  call void @llvm.lifetime.start.p0(i64 4, ptr %13) #8
  call void @llvm.lifetime.start.p0(i64 4, ptr %14) #8
  call void @llvm.lifetime.start.p0(i64 4, ptr %15) #8
  %17 = load i32, ptr %10, align 4
  store i32 %17, ptr %13, align 4
  %18 = load i32, ptr %11, align 4
  store i32 %18, ptr %15, align 4
  %19 = load ptr, ptr %7, align 8
  %20 = load ptr, ptr %8, align 8
  %21 = load ptr, ptr %9, align 8
  %22 = load i32, ptr %13, align 4
  %23 = load ptr, ptr %12, align 8
  %24 = call zeroext i16 @elem_tv(ptr noundef %19, ptr noundef %20, ptr noundef %21, i32 noundef 23, i32 noundef %22, ptr noundef @.str.282, ptr noundef %23)
  %25 = zext i16 %24 to i32
  store i32 %25, ptr %14, align 4
  %26 = icmp ugt i32 %25, 0
  br i1 %26, label %27, label %34

27:                                               ; preds = %6
  %28 = load i32, ptr %14, align 4
  %29 = load i32, ptr %13, align 4
  %30 = add i32 %29, %28
  store i32 %30, ptr %13, align 4
  %31 = load i32, ptr %14, align 4
  %32 = load i32, ptr %15, align 4
  %33 = sub i32 %32, %31
  store i32 %33, ptr %15, align 4
  br label %48

34:                                               ; preds = %6
  %35 = load ptr, ptr %9, align 8
  %36 = load ptr, ptr %8, align 8
  %37 = load ptr, ptr %7, align 8
  %38 = load i32, ptr %13, align 4
  %39 = load ptr, ptr @ansi_a_elem_1_strings, align 8
  %40 = getelementptr %struct.ext_value_string_t, ptr %39, i64 23
  %41 = getelementptr inbounds nuw %struct.ext_value_string_t, ptr %40, i32 0, i32 0
  %42 = load i32, ptr %41, align 8
  %43 = load ptr, ptr @ansi_a_elem_1_strings, align 8
  %44 = getelementptr %struct.ext_value_string_t, ptr %43, i64 23
  %45 = getelementptr inbounds nuw %struct.ext_value_string_t, ptr %44, i32 0, i32 1
  %46 = load ptr, ptr %45, align 8
  %47 = call ptr (ptr, ptr, ptr, ptr, i32, i32, ptr, ...) @proto_tree_add_expert_format(ptr noundef %35, ptr noundef %36, ptr noundef @ei_ansi_a_missing_mand_elem, ptr noundef %37, i32 noundef %38, i32 noundef 0, ptr noundef @.str.1753, i32 noundef %42, ptr noundef %46, ptr noundef @.str.282)
  br label %48

48:                                               ; preds = %34, %27
  %49 = load i32, ptr %15, align 4
  %50 = icmp ule i32 %49, 0
  br i1 %50, label %51, label %52

51:                                               ; preds = %48
  store i32 1, ptr %16, align 4
  br label %89

52:                                               ; preds = %48
  %53 = load ptr, ptr %7, align 8
  %54 = load ptr, ptr %8, align 8
  %55 = load ptr, ptr %9, align 8
  %56 = load i32, ptr %13, align 4
  %57 = load i32, ptr %15, align 4
  %58 = load ptr, ptr %12, align 8
  %59 = call zeroext i16 @elem_tlv(ptr noundef %53, ptr noundef %54, ptr noundef %55, i32 noundef 22, i32 noundef %56, i32 noundef %57, ptr noundef @.str.282, ptr noundef %58)
  %60 = zext i16 %59 to i32
  store i32 %60, ptr %14, align 4
  %61 = icmp ugt i32 %60, 0
  br i1 %61, label %62, label %69

62:                                               ; preds = %52
  %63 = load i32, ptr %14, align 4
  %64 = load i32, ptr %13, align 4
  %65 = add i32 %64, %63
  store i32 %65, ptr %13, align 4
  %66 = load i32, ptr %14, align 4
  %67 = load i32, ptr %15, align 4
  %68 = sub i32 %67, %66
  store i32 %68, ptr %15, align 4
  br label %69

69:                                               ; preds = %62, %52
  %70 = load i32, ptr %15, align 4
  %71 = icmp ule i32 %70, 0
  br i1 %71, label %72, label %73

72:                                               ; preds = %69
  store i32 1, ptr %16, align 4
  br label %89

73:                                               ; preds = %69
  %74 = load i32, ptr %15, align 4
  %75 = icmp ugt i32 %74, 0
  br i1 %75, label %76, label %88

76:                                               ; preds = %73
  %77 = load ptr, ptr %9, align 8
  %78 = load ptr, ptr %8, align 8
  %79 = load ptr, ptr %7, align 8
  %80 = load i32, ptr %13, align 4
  %81 = load i32, ptr %15, align 4
  %82 = sub i32 %81, 0
  %83 = call ptr @proto_tree_add_expert(ptr noundef %77, ptr noundef %78, ptr noundef @ei_ansi_a_extraneous_data, ptr noundef %79, i32 noundef %80, i32 noundef %82)
  %84 = load i32, ptr %15, align 4
  %85 = sub i32 %84, 0
  %86 = load i32, ptr %13, align 4
  %87 = add i32 %86, %85
  store i32 %87, ptr %13, align 4
  br label %88

88:                                               ; preds = %76, %73
  store i32 0, ptr %16, align 4
  br label %89

89:                                               ; preds = %88, %72, %51
  call void @llvm.lifetime.end.p0(i64 4, ptr %15) #8
  call void @llvm.lifetime.end.p0(i64 4, ptr %14) #8
  call void @llvm.lifetime.end.p0(i64 4, ptr %13) #8
  %90 = load i32, ptr %16, align 4
  switch i32 %90, label %92 [
    i32 0, label %91
    i32 1, label %91
  ]

91:                                               ; preds = %89, %89
  ret void

92:                                               ; preds = %89
  unreachable
}